; Function Attrs: mustprogress nounwind uwtable
define hidden void @_ZN6hermes17PostOrderAnalysisC2EPNS_8FunctionE(ptr nocapture noundef nonnull align 8 dereferenceable(32) %this, ptr noundef nonnull %F) unnamed_addr #0 align 2 {
entry:
  %call = tail call noundef nonnull align 8 dereferenceable(656) ptr @_ZNK6hermes8Function10getContextEv(ptr noundef nonnull align 8 dereferenceable(304) %F) #12
  store ptr %call, ptr %this, align 8
  %Order = getelementptr inbounds i8, ptr %this, i64 8
  tail call void @llvm.memset.p0.i64(ptr noundef nonnull align 8 dereferenceable(24) %Order, i8 0, i64 24, i1 false)
  %Next.i.i.i.i.i = getelementptr inbounds i8, ptr %F, i64 88
  %0 = load ptr, ptr %Next.i.i.i.i.i, align 8
  tail call void @_ZN6hermes17PostOrderAnalysis14visitPostOrderEPNS_10BasicBlockERSt6vectorIS2_SaIS2_EE(ptr noundef nonnull %0, ptr noundef nonnull align 8 dereferenceable(24) %Order)
  ret void
}